target datalayout = "e-m:e-p270:32:32-p271:32:32-p272:64:64-i64:64-i128:128-f80:128-n8:16:32:64-S128"
target triple = "x86_64-pc-linux-gnu"

%struct.URLContext = type { ptr, ptr, ptr, ptr, i32, i32, i32, i32, %struct.AVIOInterruptCB, i64, ptr, ptr, i32 }
%struct.AVIOInterruptCB = type { ptr, ptr }
%struct.FTPContext = type { ptr, ptr, ptr, [1024 x i8], ptr, ptr, i32, i32, ptr, ptr, ptr, ptr, i64, i64, i32, ptr, i32, i32, i32, ptr, ptr, i64, i64, i32, ptr, ptr }

@.str.36 = private unnamed_addr constant [31 x i8] c"Seeking to nagative position.\0A\00", align 1

; Function Attrs: nounwind uwtable
define internal i64 @ftp_seek(ptr noundef %0, i64 noundef %1, i32 noundef %2) #0 {
  %4 = alloca i64, align 8
  %5 = alloca ptr, align 8
  %6 = alloca i64, align 8
  %7 = alloca i32, align 4
  %8 = alloca ptr, align 8
  %9 = alloca i32, align 4
  %10 = alloca i64, align 8
  %11 = alloca i32, align 4
  store ptr %0, ptr %5, align 8, !tbaa !4
  store i64 %1, ptr %6, align 8, !tbaa !27
  store i32 %2, ptr %7, align 4, !tbaa !11
  call void @llvm.lifetime.start.p0(i64 8, ptr %8) #9
  %12 = load ptr, ptr %5, align 8, !tbaa !4
  %13 = getelementptr inbounds nuw %struct.URLContext, ptr %12, i32 0, i32 2
  %14 = load ptr, ptr %13, align 8, !tbaa !13
  store ptr %14, ptr %8, align 8, !tbaa !19
  call void @llvm.lifetime.start.p0(i64 4, ptr %9) #9
  call void @llvm.lifetime.start.p0(i64 8, ptr %10) #9
  br label %15

15:                                               ; preds = %3
  br label %16

16:                                               ; preds = %15
  br label %17

17:                                               ; preds = %16
  %18 = load i32, ptr %7, align 4, !tbaa !11
  switch i32 %18, label %43 [
    i32 65536, label %19
    i32 0, label %23
    i32 1, label %25
    i32 2, label %31
  ]

19:                                               ; preds = %17
  %20 = load ptr, ptr %8, align 8, !tbaa !19
  %21 = getelementptr inbounds nuw %struct.FTPContext, ptr %20, i32 0, i32 12
  %22 = load i64, ptr %21, align 8, !tbaa !26
  store i64 %22, ptr %4, align 8
  store i32 1, ptr %11, align 4
  br label %74

23:                                               ; preds = %17
  %24 = load i64, ptr %6, align 8, !tbaa !27
  store i64 %24, ptr %10, align 8, !tbaa !27
  br label %44

25:                                               ; preds = %17
  %26 = load ptr, ptr %8, align 8, !tbaa !19
  %27 = getelementptr inbounds nuw %struct.FTPContext, ptr %26, i32 0, i32 13
  %28 = load i64, ptr %27, align 8, !tbaa !25
  %29 = load i64, ptr %6, align 8, !tbaa !27
  %30 = add nsw i64 %28, %29
  store i64 %30, ptr %10, align 8, !tbaa !27
  br label %44

31:                                               ; preds = %17
  %32 = load ptr, ptr %8, align 8, !tbaa !19
  %33 = getelementptr inbounds nuw %struct.FTPContext, ptr %32, i32 0, i32 12
  %34 = load i64, ptr %33, align 8, !tbaa !26
  %35 = icmp slt i64 %34, 0
  br i1 %35, label %36, label %37

36:                                               ; preds = %31
  store i64 -5, ptr %4, align 8
  store i32 1, ptr %11, align 4
  br label %74

37:                                               ; preds = %31
  %38 = load ptr, ptr %8, align 8, !tbaa !19
  %39 = getelementptr inbounds nuw %struct.FTPContext, ptr %38, i32 0, i32 12
  %40 = load i64, ptr %39, align 8, !tbaa !26
  %41 = load i64, ptr %6, align 8, !tbaa !27
  %42 = add nsw i64 %40, %41
  store i64 %42, ptr %10, align 8, !tbaa !27
  br label %44

43:                                               ; preds = %17
  store i64 -22, ptr %4, align 8
  store i32 1, ptr %11, align 4
  br label %74

44:                                               ; preds = %37, %25, %23
  %45 = load ptr, ptr %5, align 8, !tbaa !4
  %46 = getelementptr inbounds nuw %struct.URLContext, ptr %45, i32 0, i32 6
  %47 = load i32, ptr %46, align 8, !tbaa !20
  %48 = icmp ne i32 %47, 0
  br i1 %48, label %49, label %50

49:                                               ; preds = %44
  store i64 -5, ptr %4, align 8
  store i32 1, ptr %11, align 4
  br label %74

50:                                               ; preds = %44
  %51 = load i64, ptr %10, align 8, !tbaa !27
  %52 = icmp slt i64 %51, 0
  br i1 %52, label %53, label %55

53:                                               ; preds = %50
  %54 = load ptr, ptr %5, align 8, !tbaa !4
  call void (ptr, i32, ptr, ...) @av_log(ptr noundef %54, i32 noundef 16, ptr noundef @.str.36)
  store i64 -22, ptr %4, align 8
  store i32 1, ptr %11, align 4
  br label %74

55:                                               ; preds = %50
  %56 = load i64, ptr %10, align 8, !tbaa !27
  %57 = load ptr, ptr %8, align 8, !tbaa !19
  %58 = getelementptr inbounds nuw %struct.FTPContext, ptr %57, i32 0, i32 13
  %59 = load i64, ptr %58, align 8, !tbaa !25
  %60 = icmp ne i64 %56, %59
  br i1 %60, label %61, label %72

61:                                               ; preds = %55
  %62 = load ptr, ptr %5, align 8, !tbaa !4
  %63 = call i32 @ftp_abort(ptr noundef %62)
  store i32 %63, ptr %9, align 4, !tbaa !11
  %64 = icmp slt i32 %63, 0
  br i1 %64, label %65, label %68

65:                                               ; preds = %61
  %66 = load i32, ptr %9, align 4, !tbaa !11
  %67 = sext i32 %66 to i64
  store i64 %67, ptr %4, align 8
  store i32 1, ptr %11, align 4
  br label %74

68:                                               ; preds = %61
  %69 = load i64, ptr %10, align 8, !tbaa !27
  %70 = load ptr, ptr %8, align 8, !tbaa !19
  %71 = getelementptr inbounds nuw %struct.FTPContext, ptr %70, i32 0, i32 13
  store i64 %69, ptr %71, align 8, !tbaa !25
  br label %72

72:                                               ; preds = %68, %55
  %73 = load i64, ptr %10, align 8, !tbaa !27
  store i64 %73, ptr %4, align 8
  store i32 1, ptr %11, align 4
  br label %74

74:                                               ; preds = %72, %65, %53, %49, %43, %36, %19
  call void @llvm.lifetime.end.p0(i64 8, ptr %10) #9
  call void @llvm.lifetime.end.p0(i64 4, ptr %9) #9
  call void @llvm.lifetime.end.p0(i64 8, ptr %8) #9
  %75 = load i64, ptr %4, align 8
  ret i64 %75
}