; Function Attrs: nounwind uwtable
define internal i64 @ftp_seek(ptr noundef %0, i64 noundef %1, i32 noundef %2) #0 {
  %4 = getelementptr inbounds nuw i8, ptr %0, i64 16
  %5 = load ptr, ptr %4, align 8, !tbaa !4
  switch i32 %2, label %34 [
    i32 65536, label %6
    i32 0, label %19
    i32 1, label %9
    i32 2, label %13
  ]

6:                                                ; preds = %3
  %7 = getelementptr inbounds nuw i8, ptr %5, i64 1104
  %8 = load i64, ptr %7, align 8, !tbaa !21
  br label %34

9:                                                ; preds = %3
  %10 = getelementptr inbounds nuw i8, ptr %5, i64 1112
  %11 = load i64, ptr %10, align 8, !tbaa !25
  %12 = add nsw i64 %11, %1
  br label %19

13:                                               ; preds = %3
  %14 = getelementptr inbounds nuw i8, ptr %5, i64 1104
  %15 = load i64, ptr %14, align 8, !tbaa !21
  %16 = icmp slt i64 %15, 0
  br i1 %16, label %34, label %17

17:                                               ; preds = %13
  %18 = add nsw i64 %15, %1
  br label %19

19:                                               ; preds = %3, %17, %9
  %.0 = phi i64 [ %18, %17 ], [ %12, %9 ], [ %1, %3 ]
  %20 = getelementptr inbounds nuw i8, ptr %0, i64 40
  %21 = load i32, ptr %20, align 8, !tbaa !18
  %.not = icmp eq i32 %21, 0
  br i1 %.not, label %22, label %34

22:                                               ; preds = %19
  %23 = icmp slt i64 %.0, 0
  br i1 %23, label %24, label %25

24:                                               ; preds = %22
  tail call void (ptr, i32, ptr, ...) @av_log(ptr noundef nonnull %0, i32 noundef 16, ptr noundef nonnull @.str.36) #10
  br label %34

25:                                               ; preds = %22
  %26 = getelementptr inbounds nuw i8, ptr %5, i64 1112
  %27 = load i64, ptr %26, align 8, !tbaa !25
  %.not22 = icmp eq i64 %.0, %27
  br i1 %.not22, label %34, label %28

28:                                               ; preds = %25
  %29 = tail call fastcc i32 @ftp_abort(ptr noundef nonnull %0)
  %30 = icmp slt i32 %29, 0
  br i1 %30, label %31, label %33

31:                                               ; preds = %28
  %32 = sext i32 %29 to i64
  br label %34

33:                                               ; preds = %28
  store i64 %.0, ptr %26, align 8, !tbaa !25
  br label %34

34:                                               ; preds = %25, %33, %19, %3, %13, %31, %24, %6
  %.019 = phi i64 [ -22, %24 ], [ %32, %31 ], [ %8, %6 ], [ -5, %13 ], [ -22, %3 ], [ -5, %19 ], [ %.0, %33 ], [ %.0, %25 ]
  ret i64 %.019
}